#include <math.h>
#include <stdio.h>
#include <stdlib.h>
#include <string.h>

int main()
{
    int n,i,age,max,t,numold,numyoung;
    char id[101][10],young[101][10];
    int x[101],r[101];
    scanf("%d",&n);
    for (i=0;i<101;i++) 
    {
        x[i]=0;
        r[i]=0;
        }
    numold=0;numyoung=0;
    for (i=1;i<=n;i++)
    {
        scanf("%s %d",id[i],&age);
        if (age>=60) 
        {
           x[i]=age;
           numold++;
           }
        else 
        {
             numyoung++;
             strcpy(young[numyoung],id[i]);
             }
        }
    for (i=1;i<101;i++)
    {
        max=1;
        for (int j=2;j<101;j++) 
        {
            if (x[j]>x[max]) max=j;
            }
        x[max]=0;
        t=i;
        r[i]=max;
        max=t;
        }
    for (i=1;i<=numold;i++) printf("%s\n",id[r[i]]); 
    for (i=1;i<=numyoung;i++) printf("%s\n",young[i]);
    }
