; ModuleID = '9/562.c'
source_filename = "9/562.c"
target datalayout = "e-m:e-p270:32:32-p271:32:32-p272:64:64-i64:64-f80:128-n8:16:32:64-S128"
target triple = "x86_64-pc-linux-gnu"

@.str = private unnamed_addr constant [3 x i8] c"%d\00", align 1
@.str.1 = private unnamed_addr constant [6 x i8] c"%s %d\00", align 1
@.str.2 = private unnamed_addr constant [4 x i8] c"%s\0A\00", align 1

; Function Attrs: noinline nounwind uwtable
define dso_local i32 @main() #0 {
  %1 = alloca i32, align 4
  %2 = alloca i32, align 4
  %3 = alloca i32, align 4
  %4 = alloca i32, align 4
  %5 = alloca i32, align 4
  %6 = alloca i32, align 4
  %7 = alloca i32, align 4
  %8 = alloca i32, align 4
  %9 = alloca [101 x [10 x i8]], align 16
  %10 = alloca [101 x [10 x i8]], align 16
  %11 = alloca [101 x i32], align 16
  %12 = alloca [101 x i32], align 16
  %13 = alloca i32, align 4
  store i32 0, i32* %1, align 4
  %14 = call i32 (i8*, ...) @__isoc99_scanf(i8* getelementptr inbounds ([3 x i8], [3 x i8]* @.str, i64 0, i64 0), i32* %2)
  store i32 0, i32* %3, align 4
  br label %15

15:                                               ; preds = %25, %0
  %16 = load i32, i32* %3, align 4
  %17 = icmp slt i32 %16, 101
  br i1 %17, label %18, label %28

18:                                               ; preds = %15
  %19 = load i32, i32* %3, align 4
  %20 = sext i32 %19 to i64
  %21 = getelementptr inbounds [101 x i32], [101 x i32]* %11, i64 0, i64 %20
  store i32 0, i32* %21, align 4
  %22 = load i32, i32* %3, align 4
  %23 = sext i32 %22 to i64
  %24 = getelementptr inbounds [101 x i32], [101 x i32]* %12, i64 0, i64 %23
  store i32 0, i32* %24, align 4
  br label %25

25:                                               ; preds = %18
  %26 = load i32, i32* %3, align 4
  %27 = add nsw i32 %26, 1
  store i32 %27, i32* %3, align 4
  br label %15

28:                                               ; preds = %15
  store i32 0, i32* %7, align 4
  store i32 0, i32* %8, align 4
  store i32 1, i32* %3, align 4
  br label %29

29:                                               ; preds = %61, %28
  %30 = load i32, i32* %3, align 4
  %31 = load i32, i32* %2, align 4
  %32 = icmp sle i32 %30, %31
  br i1 %32, label %33, label %64

33:                                               ; preds = %29
  %34 = load i32, i32* %3, align 4
  %35 = sext i32 %34 to i64
  %36 = getelementptr inbounds [101 x [10 x i8]], [101 x [10 x i8]]* %9, i64 0, i64 %35
  %37 = getelementptr inbounds [10 x i8], [10 x i8]* %36, i64 0, i64 0
  %38 = call i32 (i8*, ...) @__isoc99_scanf(i8* getelementptr inbounds ([6 x i8], [6 x i8]* @.str.1, i64 0, i64 0), i8* %37, i32* %4)
  %39 = load i32, i32* %4, align 4
  %40 = icmp sge i32 %39, 60
  br i1 %40, label %41, label %48

41:                                               ; preds = %33
  %42 = load i32, i32* %4, align 4
  %43 = load i32, i32* %3, align 4
  %44 = sext i32 %43 to i64
  %45 = getelementptr inbounds [101 x i32], [101 x i32]* %11, i64 0, i64 %44
  store i32 %42, i32* %45, align 4
  %46 = load i32, i32* %7, align 4
  %47 = add nsw i32 %46, 1
  store i32 %47, i32* %7, align 4
  br label %60

48:                                               ; preds = %33
  %49 = load i32, i32* %8, align 4
  %50 = add nsw i32 %49, 1
  store i32 %50, i32* %8, align 4
  %51 = load i32, i32* %8, align 4
  %52 = sext i32 %51 to i64
  %53 = getelementptr inbounds [101 x [10 x i8]], [101 x [10 x i8]]* %10, i64 0, i64 %52
  %54 = getelementptr inbounds [10 x i8], [10 x i8]* %53, i64 0, i64 0
  %55 = load i32, i32* %3, align 4
  %56 = sext i32 %55 to i64
  %57 = getelementptr inbounds [101 x [10 x i8]], [101 x [10 x i8]]* %9, i64 0, i64 %56
  %58 = getelementptr inbounds [10 x i8], [10 x i8]* %57, i64 0, i64 0
  %59 = call i8* @strcpy(i8* %54, i8* %58) #3
  br label %60

60:                                               ; preds = %48, %41
  br label %61

61:                                               ; preds = %60
  %62 = load i32, i32* %3, align 4
  %63 = add nsw i32 %62, 1
  store i32 %63, i32* %3, align 4
  br label %29

64:                                               ; preds = %29
  store i32 1, i32* %3, align 4
  br label %65

65:                                               ; preds = %98, %64
  %66 = load i32, i32* %3, align 4
  %67 = icmp slt i32 %66, 101
  br i1 %67, label %68, label %101

68:                                               ; preds = %65
  store i32 1, i32* %5, align 4
  store i32 2, i32* %13, align 4
  br label %69

69:                                               ; preds = %85, %68
  %70 = load i32, i32* %13, align 4
  %71 = icmp slt i32 %70, 101
  br i1 %71, label %72, label %88

72:                                               ; preds = %69
  %73 = load i32, i32* %13, align 4
  %74 = sext i32 %73 to i64
  %75 = getelementptr inbounds [101 x i32], [101 x i32]* %11, i64 0, i64 %74
  %76 = load i32, i32* %75, align 4
  %77 = load i32, i32* %5, align 4
  %78 = sext i32 %77 to i64
  %79 = getelementptr inbounds [101 x i32], [101 x i32]* %11, i64 0, i64 %78
  %80 = load i32, i32* %79, align 4
  %81 = icmp sgt i32 %76, %80
  br i1 %81, label %82, label %84

82:                                               ; preds = %72
  %83 = load i32, i32* %13, align 4
  store i32 %83, i32* %5, align 4
  br label %84

84:                                               ; preds = %82, %72
  br label %85

85:                                               ; preds = %84
  %86 = load i32, i32* %13, align 4
  %87 = add nsw i32 %86, 1
  store i32 %87, i32* %13, align 4
  br label %69

88:                                               ; preds = %69
  %89 = load i32, i32* %5, align 4
  %90 = sext i32 %89 to i64
  %91 = getelementptr inbounds [101 x i32], [101 x i32]* %11, i64 0, i64 %90
  store i32 0, i32* %91, align 4
  %92 = load i32, i32* %3, align 4
  store i32 %92, i32* %6, align 4
  %93 = load i32, i32* %5, align 4
  %94 = load i32, i32* %3, align 4
  %95 = sext i32 %94 to i64
  %96 = getelementptr inbounds [101 x i32], [101 x i32]* %12, i64 0, i64 %95
  store i32 %93, i32* %96, align 4
  %97 = load i32, i32* %6, align 4
  store i32 %97, i32* %5, align 4
  br label %98

98:                                               ; preds = %88
  %99 = load i32, i32* %3, align 4
  %100 = add nsw i32 %99, 1
  store i32 %100, i32* %3, align 4
  br label %65

101:                                              ; preds = %65
  store i32 1, i32* %3, align 4
  br label %102

102:                                              ; preds = %115, %101
  %103 = load i32, i32* %3, align 4
  %104 = load i32, i32* %7, align 4
  %105 = icmp sle i32 %103, %104
  br i1 %105, label %106, label %118

106:                                              ; preds = %102
  %107 = load i32, i32* %3, align 4
  %108 = sext i32 %107 to i64
  %109 = getelementptr inbounds [101 x i32], [101 x i32]* %12, i64 0, i64 %108
  %110 = load i32, i32* %109, align 4
  %111 = sext i32 %110 to i64
  %112 = getelementptr inbounds [101 x [10 x i8]], [101 x [10 x i8]]* %9, i64 0, i64 %111
  %113 = getelementptr inbounds [10 x i8], [10 x i8]* %112, i64 0, i64 0
  %114 = call i32 (i8*, ...) @printf(i8* getelementptr inbounds ([4 x i8], [4 x i8]* @.str.2, i64 0, i64 0), i8* %113)
  br label %115

115:                                              ; preds = %106
  %116 = load i32, i32* %3, align 4
  %117 = add nsw i32 %116, 1
  store i32 %117, i32* %3, align 4
  br label %102

118:                                              ; preds = %102
  store i32 1, i32* %3, align 4
  br label %119

119:                                              ; preds = %129, %118
  %120 = load i32, i32* %3, align 4
  %121 = load i32, i32* %8, align 4
  %122 = icmp sle i32 %120, %121
  br i1 %122, label %123, label %132

123:                                              ; preds = %119
  %124 = load i32, i32* %3, align 4
  %125 = sext i32 %124 to i64
  %126 = getelementptr inbounds [101 x [10 x i8]], [101 x [10 x i8]]* %10, i64 0, i64 %125
  %127 = getelementptr inbounds [10 x i8], [10 x i8]* %126, i64 0, i64 0
  %128 = call i32 (i8*, ...) @printf(i8* getelementptr inbounds ([4 x i8], [4 x i8]* @.str.2, i64 0, i64 0), i8* %127)
  br label %129

129:                                              ; preds = %123
  %130 = load i32, i32* %3, align 4
  %131 = add nsw i32 %130, 1
  store i32 %131, i32* %3, align 4
  br label %119

132:                                              ; preds = %119
  %133 = load i32, i32* %1, align 4
  ret i32 %133
}

declare dso_local i32 @__isoc99_scanf(i8*, ...) #1

; Function Attrs: nounwind
declare dso_local i8* @strcpy(i8*, i8*) #2

declare dso_local i32 @printf(i8*, ...) #1


!llvm.module.flags = !{!0}
!llvm.ident = !{!1}

!0 = !{i32 1, !"wchar_size", i32 4}
!1 = !{!"clang version 10.0.0-4ubuntu1 "}
